(dp1
S'files'
p2
(dp3
S'pyherc_rules_consume'
p4
(dp5
S'index'
p6
(dp7
S'par'
p8
I0
sS'html_filename'
p9
S'pyherc_rules_consume.html'
p10
sS'name'
p11
S'pyherc.rules.consume'
p12
sS'nums'
p13
ccopy_reg
_reconstructor
p14
(ccoverage.results
Numbers
p15
c__builtin__
object
p16
NtRp17
(dp18
S'n_files'
p19
I1
sS'n_branches'
p20
I0
sS'n_statements'
p21
I3
sS'n_excluded'
p22
I0
sS'n_missing'
p23
I0
sS'n_missing_branches'
p24
I0
sbssS'hash'
p25
S'Yt\x1e\xaa\xaa\xe6\x8ev\xde\x1f\x95%\x1a\x1d%~'
p26
ssS'herculeum_gui_resources'
p27
(dp28
S'index'
p29
(dp30
S'par'
p31
I0
sS'html_filename'
p32
S'herculeum_gui_resources.html'
p33
sS'name'
p34
S'herculeum.gui.resources'
p35
sS'nums'
p36
g14
(g15
g16
NtRp37
(dp38
g19
I1
sg20
I0
sg21
I9
sg22
I0
sg23
I1
sg24
I0
sbssS'hash'
p39
S'\x00\xb7H\x9d\xf7\x98\xa7\x14\xeb,MoM\xeb\x91?'
p40
ssS'pyherc_data_dungeon'
p41
(dp42
g6
(dp43
g8
I0
sg9
S'pyherc_data_dungeon.html'
p44
sg11
S'pyherc.data.dungeon'
p45
sg13
g14
(g15
g16
NtRp46
(dp47
g19
I1
sg20
I0
sg21
I7
sg22
I0
sg23
I0
sg24
I0
sbssg25
S'\xdbFy\xcc\xc3\x0e\xc9\x8f\xa3\xf8\\\x9b\x8bvh\x97'
p48
ssS'pyherc_ai_heapset'
p49
(dp50
S'index'
p51
(dp52
S'par'
p53
I0
sS'html_filename'
p54
S'pyherc_ai_heapset.html'
p55
sS'name'
p56
S'pyherc.ai.heapset'
p57
sS'nums'
p58
g14
(g15
g16
NtRp59
(dp60
g19
I1
sg20
I0
sg21
I35
sg22
I0
sg23
I6
sg24
I0
sbssS'hash'
p61
S'*\x8d\xd5\x8e\xf4\xe0\x1dIT\xdb\xa7\xcd#\xc4\x9du'
p62
ssS'pyherc_ai_simple'
p63
(dp64
g6
(dp65
g53
I0
sg54
S'pyherc_ai_simple.html'
p66
sg56
S'pyherc.ai.simple'
p67
sg58
g14
(g15
g16
NtRp68
(dp69
g19
I1
sg20
I0
sg21
I61
sg22
I0
sg23
I52
sg24
I0
sbssg25
S'\xe1\xca\xf3j8#\xa2\xed59\x05fJ\xa0\x91\x05'
p70
ssS'herculeum_gui_eventdisplay'
p71
(dp72
g6
(dp73
S'par'
p74
I0
sS'html_filename'
p75
S'herculeum_gui_eventdisplay.html'
p76
sS'name'
p77
S'herculeum.gui.eventdisplay'
p78
sS'nums'
p79
g14
(g15
g16
NtRp80
(dp81
g19
I1
sg20
I0
sg21
I33
sg22
I0
sg23
I21
sg24
I0
sbssg25
S'L\x04\x04}\xfeq\xb7\xf8\xa5\x96P\x9e\xa8\xbb\xe3\xba'
p82
ssS'pyherc_generators_level_decorator'
p83
(dp84
g6
(dp85
g8
I0
sg9
S'pyherc_generators_level_decorator.html'
p86
sg11
S'pyherc.generators.level.decorator'
p87
sg13
g14
(g15
g16
NtRp88
(dp89
g19
I1
sg20
I0
sg21
I4
sg22
I0
sg23
I0
sg24
I0
sbssg25
S'M\x17\x1b\xe01\xed\xaaz\xaa\xe7\x0e\x849C\xefi'
p90
ssS'pyherc_generators_level_items'
p91
(dp92
g6
(dp93
g8
I0
sg9
S'pyherc_generators_level_items.html'
p94
sg11
S'pyherc.generators.level.items'
p95
sg13
g14
(g15
g16
NtRp96
(dp97
g19
I1
sg20
I0
sg21
I48
sg22
I0
sg23
I0
sg24
I0
sbssg25
S'\x07\xe7\x1b\x87I\x92{r\x8bM\x97T\xd1{=\xcc'
p98
ssS'pyherc_rules_consume_factories'
p99
(dp100
g6
(dp101
S'par'
p102
I0
sS'html_filename'
p103
S'pyherc_rules_consume_factories.html'
p104
sS'name'
p105
S'pyherc.rules.consume.factories'
p106
sS'nums'
p107
g14
(g15
g16
NtRp108
(dp109
g19
I1
sg20
I0
sg21
I10
sg22
I0
sg23
I0
sg24
I0
sbssg25
S'\xfb}o{\xef&\xfd\xcb\x01Qd\xfc\x8d,K$'
p110
ssS'pyherc_rules_move'
p111
(dp112
g6
(dp113
g8
I0
sg9
S'pyherc_rules_move.html'
p114
sg11
S'pyherc.rules.move'
p115
sg13
g14
(g15
g16
NtRp116
(dp117
g19
I1
sg20
I0
sg21
I2
sg22
I0
sg23
I0
sg24
I0
sbssg25
S"\xf8\x87\xa4\x97=\xcbY}\xea~\x1e@\x93\x93\xb0'"
p118
ssS'pyherc_data_model'
p119
(dp120
g6
(dp121
S'par'
p122
I0
sS'html_filename'
p123
S'pyherc_data_model.html'
p124
sS'name'
p125
S'pyherc.data.model'
p126
sS'nums'
p127
g14
(g15
g16
NtRp128
(dp129
g19
I1
sg20
I0
sg21
I55
sg22
I0
sg23
I8
sg24
I0
sbssg25
S'C0\xce[X\xf7`\xf6\x88\x9bq++a\xa5@'
p130
ssS'pyherc_data_effects_heal'
p131
(dp132
g6
(dp133
S'par'
p134
I0
sS'html_filename'
p135
S'pyherc_data_effects_heal.html'
p136
sS'name'
p137
S'pyherc.data.effects.heal'
p138
sS'nums'
p139
g14
(g15
g16
NtRp140
(dp141
g19
I1
sg20
I0
sg21
I20
sg22
I0
sg23
I1
sg24
I0
sbssg25
S'\xfa,\xfd"Q\xfc\xbdp\xd3\x1c]m\xd1\xc5$\xdd'
p142
ssS'pyherc_generators_level_creatures'
p143
(dp144
g6
(dp145
g8
I0
sg9
S'pyherc_generators_level_creatures.html'
p146
sg11
S'pyherc.generators.level.creatures'
p147
sg13
g14
(g15
g16
NtRp148
(dp149
g19
I1
sg20
I0
sg21
I47
sg22
I0
sg23
I1
sg24
I0
sbssg25
S'\xca(V/\xe79\xdb\xcdQ\x10\x14\x86\x96\x1c\x0bB'
p150
ssS'pyherc_rules_public'
p151
(dp152
g6
(dp153
g8
I0
sg9
S'pyherc_rules_public.html'
p154
sg11
S'pyherc.rules.public'
p155
sg13
g14
(g15
g16
NtRp156
(dp157
g19
I1
sg20
I0
sg21
I63
sg22
I0
sg23
I4
sg24
I0
sbssg25
S'\xbf4\x02\x85\xd4\xb4\xc4b\xed\xa94\xea=\xf8\xe4\xdd'
p158
ssS'herculeum_gui_map'
p159
(dp160
g6
(dp161
S'par'
p162
I0
sS'html_filename'
p163
S'herculeum_gui_map.html'
p164
sS'name'
p165
S'herculeum.gui.map'
p166
sS'nums'
p167
g14
(g15
g16
NtRp168
(dp169
g19
I1
sg20
I0
sg21
I238
sg22
I0
sg23
I193
sg24
I0
sbssg25
S'\x90\xbf\x14Z\x93\xf44\xe4\x8b\xb1\xb2\xd5\x81o\x81\xeb'
p170
ssS'pyherc_rules_move_factories'
p171
(dp172
g6
(dp173
S'par'
p174
I0
sS'html_filename'
p175
S'pyherc_rules_move_factories.html'
p176
sS'name'
p177
S'pyherc.rules.move.factories'
p178
sS'nums'
p179
g14
(g15
g16
NtRp180
(dp181
g19
I1
sg20
I0
sg21
I57
sg22
I0
sg23
I8
sg24
I0
sbssg25
S'_\xa4\x0b\xae]1\xbb\xd5`\xf0C\xccu4\xebM'
p182
ssS'herculeum_gui_widgets'
p183
(dp184
S'index'
p185
(dp186
S'par'
p187
I0
sS'html_filename'
p188
S'herculeum_gui_widgets.html'
p189
sS'name'
p190
S'herculeum.gui.widgets'
p191
sS'nums'
p192
g14
(g15
g16
NtRp193
(dp194
g19
I1
sg20
I0
sg21
I123
sg22
I0
sg23
I53
sg24
I0
sbssS'hash'
p195
S"\xc3\xbc\x8e\xcb\xdf\xb4\xa6\x1f\xc1\xc73\x81\xceO\x8e'"
p196
ssS'pyherc_rules_items'
p197
(dp198
g6
(dp199
S'par'
p200
I0
sS'html_filename'
p201
S'pyherc_rules_items.html'
p202
sS'name'
p203
S'pyherc.rules.items'
p204
sS'nums'
p205
g14
(g15
g16
NtRp206
(dp207
g19
I1
sg20
I0
sg21
I10
sg22
I0
sg23
I0
sg24
I0
sbssg25
S'\x12\xd1#ps{t%\x9b@\x00]\xa8q\x13\x04'
p208
ssS'pyherc_rules'
p209
(dp210
g6
(dp211
g102
I0
sg103
S'pyherc_rules.html'
p212
sg105
S'pyherc.rules'
p213
sg107
g14
(g15
g16
NtRp214
(dp215
g19
I1
sg20
I0
sg21
I9
sg22
I0
sg23
I0
sg24
I0
sbssg25
S'\x9a\x08B.\xb6\xb6\x0b\xf6i\xde\xbf=\x08\xc9\xdd\xbc'
p216
ssS'pyherc_data_effects_effectscollection'
p217
(dp218
g6
(dp219
S'par'
p220
I0
sS'html_filename'
p221
S'pyherc_data_effects_effectscollection.html'
p222
sS'name'
p223
S'pyherc.data.effects.effectscollection'
p224
sS'nums'
p225
g14
(g15
g16
NtRp226
(dp227
g19
I1
sg20
I0
sg21
I58
sg22
I0
sg23
I5
sg24
I0
sbssg25
S'\xbf\x99\xb5\xbe\xc2[\x89w\x19\xa2\n\xa9\xc4\x0cp\xfc'
p228
ssS'pyherc_generators_level_room_catacombs'
p229
(dp230
g6
(dp231
g8
I0
sg9
S'pyherc_generators_level_room_catacombs.html'
p232
sg11
S'pyherc.generators.level.room.catacombs'
p233
sg13
g14
(g15
g16
NtRp234
(dp235
g19
I1
sg20
I0
sg21
I57
sg22
I0
sg23
I6
sg24
I0
sbssg25
S'/\xfcP\xfaIq\xc7\x16\xb4\xbe\xc2b(\xca\x8b\x94'
p236
ssS'pyherc_rules_move_action'
p237
(dp238
g6
(dp239
g8
I0
sg9
S'pyherc_rules_move_action.html'
p240
sg11
S'pyherc.rules.move.action'
p241
sg13
g14
(g15
g16
NtRp242
(dp243
g19
I1
sg20
I0
sg21
I40
sg22
I0
sg23
I2
sg24
I0
sbssg25
S'\x17\xb1)\xfe\xaa^\xa0\xe6\xc9\xe8N\x99\x83\x0b\xb9\xca'
p244
ssS'pyherc_data_inventory'
p245
(dp246
S'index'
p247
(dp248
S'par'
p249
I0
sS'html_filename'
p250
S'pyherc_data_inventory.html'
p251
sS'name'
p252
S'pyherc.data.inventory'
p253
sS'nums'
p254
g14
(g15
g16
NtRp255
(dp256
g19
I1
sg20
I0
sg21
I39
sg22
I0
sg23
I0
sg24
I0
sbssS'hash'
p257
S'"\xf3\x91\x8d,\x8f L\xb5\xa9X\x9d\xa6\xff6n'
p258
ssS'pyherc_debug'
p259
(dp260
g6
(dp261
g8
I0
sg9
S'pyherc_debug.html'
p262
sg11
S'pyherc.debug'
p263
sg13
g14
(g15
g16
NtRp264
(dp265
g19
I1
sg20
I0
sg21
I2
sg22
I0
sg23
I0
sg24
I0
sbssg25
S'i\x1b\x05fh\xc9\xc4p"\xa5?\xa4\xefn\xe6,'
p266
ssS'pyherc_data_effects_effect'
p267
(dp268
g6
(dp269
g134
I0
sg135
S'pyherc_data_effects_effect.html'
p270
sg137
S'pyherc.data.effects.effect'
p271
sg139
g14
(g15
g16
NtRp272
(dp273
g19
I1
sg20
I0
sg21
I35
sg22
I0
sg23
I1
sg24
I0
sbssg25
S'Q[\x94W\x8b\xd9\xc1\x96\x11=\xdc\x9c\x94w\xa1P'
p274
ssS'pyherc_generators_item'
p275
(dp276
g6
(dp277
S'par'
p278
I0
sS'html_filename'
p279
S'pyherc_generators_item.html'
p280
sS'name'
p281
S'pyherc.generators.item'
p282
sS'nums'
p283
g14
(g15
g16
NtRp284
(dp285
g19
I1
sg20
I0
sg21
I84
sg22
I0
sg23
I1
sg24
I0
sbssg25
S'<2\x0f\x83){\xff\xa2\xa8\xd3\xfb\xcf:ue\xc3'
p286
ssS'pyherc_rules_moving'
p287
(dp288
g6
(dp289
g8
I0
sg9
S'pyherc_rules_moving.html'
p290
sg11
S'pyherc.rules.moving'
p291
sg13
g14
(g15
g16
NtRp292
(dp293
g19
I1
sg20
I0
sg21
I10
sg22
I0
sg23
I0
sg24
I0
sbssg25
S'\x7f6\xcdd\x03:\rj\x9d\x86\xc5\x0f\x96\xb1\x91\x91'
p294
ssS'pyherc_data'
p295
(dp296
g6
(dp297
S'par'
p298
I0
sS'html_filename'
p299
S'pyherc_data.html'
p300
sS'name'
p301
S'pyherc.data'
p302
sS'nums'
p303
g14
(g15
g16
NtRp304
(dp305
g19
I1
sg20
I0
sg21
I9
sg22
I0
sg23
I0
sg24
I0
sbssg25
S'pF<l{PG\xea3D\x00t"2\xd4\xa5'
p306
ssS'pyherc_generators_level'
p307
(dp308
g6
(dp309
g8
I0
sg9
S'pyherc_generators_level.html'
p310
sg11
S'pyherc.generators.level'
p311
sg13
g14
(g15
g16
NtRp312
(dp313
g19
I1
sg20
I0
sg21
I2
sg22
I0
sg23
I0
sg24
I0
sbssg25
S'"#\xa1\x8f\x8ax\xfa\xfb\xed2\xc3O\xa2T\x96\xa6'
p314
ssS'pyherc_data_level'
p315
(dp316
g6
(dp317
g53
I0
sg54
S'pyherc_data_level.html'
p318
sg56
S'pyherc.data.level'
p319
sg58
g14
(g15
g16
NtRp320
(dp321
g19
I1
sg20
I0
sg21
I183
sg22
I0
sg23
I22
sg24
I0
sbssg25
S'\x9b>\xc9Gz\xd6\x92\xab=#\xc5\xec\xda"`\xbc'
p322
ssS'pyherc_generators'
p323
(dp324
g6
(dp325
g102
I0
sg103
S'pyherc_generators.html'
p326
sg105
S'pyherc.generators'
p327
sg107
g14
(g15
g16
NtRp328
(dp329
g19
I1
sg20
I0
sg21
I8
sg22
I0
sg23
I0
sg24
I0
sbssg25
S'\x91\xc1\x01\xd6q\xea \xc4\xe9\x03\xbc\x0e9[\x12g'
p330
ssS'pyherc_generators_utils'
p331
(dp332
g6
(dp333
g53
I0
sg54
S'pyherc_generators_utils.html'
p334
sg56
S'pyherc.generators.utils'
p335
sg58
g14
(g15
g16
NtRp336
(dp337
g19
I1
sg20
I0
sg21
I63
sg22
I0
sg23
I8
sg24
I0
sbssg25
S'\xab9\xf8+?\xef\x8b\xd6\x9bw\x84\x12\xd50>G'
p338
ssS'pyherc_rules_attack_factories'
p339
(dp340
g6
(dp341
g278
I0
sg279
S'pyherc_rules_attack_factories.html'
p342
sg281
S'pyherc.rules.attack.factories'
p343
sg283
g14
(g15
g16
NtRp344
(dp345
g19
I1
sg20
I0
sg21
I103
sg22
I0
sg23
I24
sg24
I0
sbssg25
S'\r\xeb\x1b\x06g\xebVb\xa8\xc0\xc2@InR\x8c'
p346
ssS'herculeum_gui_images'
p347
(dp348
g6
(dp349
g8
I0
sg9
S'herculeum_gui_images.html'
p350
sg11
S'herculeum.gui.images'
p351
sg13
g14
(g15
g16
NtRp352
(dp353
g19
I1
sg20
I0
sg21
I7
sg22
I0
sg23
I0
sg24
I0
sbssg25
S'i\x08\x8e\xa3\xd5\xa19\xbeK\xb5\x92^*\xa8\xf4\x8e'
p354
ssS'pyherc_rules_inventory_action'
p355
(dp356
g6
(dp357
g8
I0
sg9
S'pyherc_rules_inventory_action.html'
p358
sg11
S'pyherc.rules.inventory.action'
p359
sg13
g14
(g15
g16
NtRp360
(dp361
g19
I1
sg20
I0
sg21
I34
sg22
I0
sg23
I1
sg24
I0
sbssg25
S' $\x99H\xfb\x1d\xd9\x812\x82\x00r\xc7p\x0f\xab'
p362
ssS'pyherc_generators_level_room_squareroom'
p363
(dp364
g6
(dp365
g8
I0
sg9
S'pyherc_generators_level_room_squareroom.html'
p366
sg11
S'pyherc.generators.level.room.squareroom'
p367
sg13
g14
(g15
g16
NtRp368
(dp369
g19
I1
sg20
I0
sg21
I36
sg22
I0
sg23
I0
sg24
I0
sbssg25
S'\xe0\x15\xcc\x18&\x86\xda\\\xdfr\tA-~\xa6!'
p370
ssS'herculeum_gui_menu'
p371
(dp372
S'index'
p373
(dp374
S'par'
p375
I0
sS'html_filename'
p376
S'herculeum_gui_menu.html'
p377
sS'name'
p378
S'herculeum.gui.menu'
p379
sS'nums'
p380
g14
(g15
g16
NtRp381
(dp382
g19
I1
sg20
I0
sg21
I32
sg22
I0
sg23
I23
sg24
I0
sbssS'hash'
p383
S'\xcfu\x81\xe2\xc9\xd9\x0488\x93\xbdX/\xe2\xd6\xda'
p384
ssS'herculeum_gui'
p385
(dp386
g6
(dp387
S'par'
p388
I0
sS'html_filename'
p389
S'herculeum_gui.html'
p390
sS'name'
p391
S'herculeum.gui'
p392
sS'nums'
p393
g14
(g15
g16
NtRp394
(dp395
g19
I1
sg20
I0
sg21
I4
sg22
I0
sg23
I0
sg24
I0
sbssg25
S'#"R\xd9\xc3\x81V\xb7\xda \xeb\xebl\xa6\xfc\xcf'
p396
ssS'herculeum_config_levels_configure_catacombs'
p397
(dp398
g6
(dp399
g53
I0
sg54
S'herculeum_config_levels_configure_catacombs.html'
p400
sg56
S'herculeum.config.levels.configure_catacombs'
p401
sg58
g14
(g15
g16
NtRp402
(dp403
g19
I1
sg20
I0
sg21
I62
sg22
I0
sg23
I0
sg24
I0
sbssg25
S'[!s\x9b\xf8oe Q\xaf\xe5\x96\xd5\x92e\xa9'
p404
ssS'pyherc_data_effects_damage'
p405
(dp406
g6
(dp407
g134
I0
sg135
S'pyherc_data_effects_damage.html'
p408
sg137
S'pyherc.data.effects.damage'
p409
sg139
g14
(g15
g16
NtRp410
(dp411
g19
I1
sg20
I0
sg21
I11
sg22
I0
sg23
I0
sg24
I0
sbssg25
S'\x93\xc4M\x04C\x12\xc3iW*\x97\xb7>Q\x8b;'
p412
ssS'pyherc_generators_level_partitioners'
p413
(dp414
g6
(dp415
g8
I0
sg9
S'pyherc_generators_level_partitioners.html'
p416
sg11
S'pyherc.generators.level.partitioners'
p417
sg13
g14
(g15
g16
NtRp418
(dp419
g19
I1
sg20
I0
sg21
I2
sg22
I0
sg23
I0
sg24
I0
sbssg25
S'\x9dL;\xfcs\xe1\x97}\xd7B\x8a^\x05\x13\x18r'
p420
ssS'pyherc_config_dsl'
p421
(dp422
g6
(dp423
g8
I0
sg9
S'pyherc_config_dsl.html'
p424
sg11
S'pyherc.config.dsl'
p425
sg13
g14
(g15
g16
NtRp426
(dp427
g19
I1
sg20
I0
sg21
I3
sg22
I0
sg23
I0
sg24
I0
sbssg25
S'\x82\xfd\x11\xa4\x1f\x94\xda\xb17\xc3H\xb9\xbfX \xe0'
p428
ssS'herculeum_gui_character'
p429
(dp430
g373
(dp431
g134
I0
sg135
S'herculeum_gui_character.html'
p432
sg137
S'herculeum.gui.character'
p433
sg139
g14
(g15
g16
NtRp434
(dp435
g19
I1
sg20
I0
sg21
I81
sg22
I0
sg23
I0
sg24
I0
sbssg383
S'\xf9s/\x058t\x95\x14i\xd6\xe9\xaa\xc1\xad\xd56'
p436
ssS'pyherc_rules_attack_action'
p437
(dp438
g6
(dp439
g174
I0
sg175
S'pyherc_rules_attack_action.html'
p440
sg177
S'pyherc.rules.attack.action'
p441
sg179
g14
(g15
g16
NtRp442
(dp443
g19
I1
sg20
I0
sg21
I67
sg22
I0
sg23
I8
sg24
I0
sbssg25
S'\x8c.\xb8}~{\xd2k\xa3\x1a\xef\xa6\xbd\xffR\xf0'
p444
ssS'pyherc_config_dsl_roomgenerators'
p445
(dp446
g6
(dp447
g8
I0
sg9
S'pyherc_config_dsl_roomgenerators.html'
p448
sg11
S'pyherc.config.dsl.roomgenerators'
p449
sg13
g14
(g15
g16
NtRp450
(dp451
g19
I1
sg20
I0
sg21
I25
sg22
I0
sg23
I0
sg24
I0
sbssg25
S'\x0f\x91+\xdd\xf3^\xe8G\xb2\xadZ\xd5A\xd4\x1f\xa7'
p452
ssS'herculeum_gui_startgame'
p453
(dp454
g6
(dp455
g375
I0
sg376
S'herculeum_gui_startgame.html'
p456
sg378
S'herculeum.gui.startgame'
p457
sg380
g14
(g15
g16
NtRp458
(dp459
g19
I1
sg20
I0
sg21
I49
sg22
I0
sg23
I39
sg24
I0
sbssg25
S' C\xb6`\tN-*\x15\x90\x0cpH\xdb\xe4\x15'
p460
ssS'pyherc'
p461
(dp462
g6
(dp463
g8
I0
sg9
S'pyherc.html'
p464
sg11
g461
sg13
g14
(g15
g16
NtRp465
(dp466
g19
I1
sg20
I0
sg21
I2
sg22
I0
sg23
I0
sg24
I0
sbssg25
S'\xdb\x8d\xf2\xf6\xa6\x99\xc8\xa6j\xb6,\x17\xc3\xab\xda\xc2'
p467
ssS'pyherc_generators_level_config'
p468
(dp469
g6
(dp470
g8
I0
sg9
S'pyherc_generators_level_config.html'
p471
sg11
S'pyherc.generators.level.config'
p472
sg13
g14
(g15
g16
NtRp473
(dp474
g19
I1
sg20
I0
sg21
I28
sg22
I0
sg23
I0
sg24
I0
sbssg25
S'\xd2y\x12\xce\x02\x81\xc9\xbd\xae\x05\xcbe1\xd4\xcd\xd8'
p475
ssS'herculeum_gui_surfaceManager'
p476
(dp477
g6
(dp478
g220
I0
sg221
S'herculeum_gui_surfaceManager.html'
p479
sg223
S'herculeum.gui.surfaceManager'
p480
sg225
g14
(g15
g16
NtRp481
(dp482
g19
I1
sg20
I0
sg21
I79
sg22
I0
sg23
I4
sg24
I0
sbssg25
S'X?\xcd\xbf\xd9\x80\xb3\xe9\xf4\x98I\xe9\xc4\xa6\xe8('
p483
ssS'pyherc_generators_effects'
p484
(dp485
g6
(dp486
g220
I0
sg221
S'pyherc_generators_effects.html'
p487
sg223
S'pyherc.generators.effects'
p488
sg225
g14
(g15
g16
NtRp489
(dp490
g19
I1
sg20
I0
sg21
I21
sg22
I0
sg23
I2
sg24
I0
sbssg25
S'Ts\x84\xa0\xa8\x96P\r\x844\xff\xa0\x8d#\x12\xa5'
p491
ssS'pyherc_data_effects'
p492
(dp493
g6
(dp494
S'par'
p495
I0
sS'html_filename'
p496
S'pyherc_data_effects.html'
p497
sS'name'
p498
S'pyherc.data.effects'
p499
sS'nums'
p500
g14
(g15
g16
NtRp501
(dp502
g19
I1
sg20
I0
sg21
I7
sg22
I0
sg23
I0
sg24
I0
sbssg25
S'\xd0M\x0c\xe3\xd8G=\x08\xda\xc5\x04`\x13\x99K\xa3'
p503
ssS'pyherc_debug_handlers'
p504
(dp505
g6
(dp506
g174
I0
sg175
S'pyherc_debug_handlers.html'
p507
sg177
S'pyherc.debug.handlers'
p508
sg179
g14
(g15
g16
NtRp509
(dp510
g19
I1
sg20
I0
sg21
I76
sg22
I0
sg23
I48
sg24
I0
sbssg25
S'P\xec(I\xd1\xe6VC\x12UvX\xc2\x8e\x96\x9a'
p511
ssS'pyherc_data_portal'
p512
(dp513
g6
(dp514
g8
I0
sg9
S'pyherc_data_portal.html'
p515
sg11
S'pyherc.data.portal'
p516
sg13
g14
(g15
g16
NtRp517
(dp518
g19
I1
sg20
I0
sg21
I37
sg22
I0
sg23
I7
sg24
I0
sbssg25
S'\xd6tB\xc8\x12\xac\x0f(CR\xd7\x87u\xc0\x97\x8f'
p519
ssS'pyherc_rules_engine'
p520
(dp521
S'index'
p522
(dp523
g102
I0
sg103
S'pyherc_rules_engine.html'
p524
sg105
S'pyherc.rules.engine'
p525
sg107
g14
(g15
g16
NtRp526
(dp527
g19
I1
sg20
I0
sg21
I12
sg22
I0
sg23
I1
sg24
I0
sbssS'hash'
p528
S'\xc0\x82\xbf\xaa\xe0\x17>\xa9\xf5L_\x1e\xc3%\tl'
p529
ssS'pyherc_rules_character'
p530
(dp531
g6
(dp532
S'par'
p533
I0
sS'html_filename'
p534
S'pyherc_rules_character.html'
p535
sS'name'
p536
S'pyherc.rules.character'
p537
sS'nums'
p538
g14
(g15
g16
NtRp539
(dp540
g19
I1
sg20
I0
sg21
I44
sg22
I0
sg23
I1
sg24
I0
sbssg25
S'Q`z\x8f\xd5\x89(\xd6\xf8\x11\x17oR\x9d\x84@'
p541
ssS'herculeum_gui_mainwindow'
p542
(dp543
g6
(dp544
g134
I0
sg135
S'herculeum_gui_mainwindow.html'
p545
sg137
S'herculeum.gui.mainwindow'
p546
sg139
g14
(g15
g16
NtRp547
(dp548
g19
I1
sg20
I0
sg21
I63
sg22
I0
sg23
I43
sg24
I0
sbssg25
S'\x9f\xbb\xa5M\xb7\x90mA|\xb3\xd8\x8c\x9b6D\x99'
p549
ssS'pyherc_events'
p550
(dp551
g6
(dp552
S'par'
p553
I0
sS'html_filename'
p554
S'pyherc_events.html'
p555
sS'name'
p556
S'pyherc.events'
p557
sS'nums'
p558
g14
(g15
g16
NtRp559
(dp560
g19
I1
sg20
I0
sg21
I9
sg22
I0
sg23
I0
sg24
I0
sbssg25
S'\xfd\x9e^\xda\xb6c\x99-k\x85\xddR\xa6J\x91@'
p561
ssS'pyherc_rules_ending'
p562
(dp563
g6
(dp564
g174
I0
sg175
S'pyherc_rules_ending.html'
p565
sg177
S'pyherc.rules.ending'
p566
sg179
g14
(g15
g16
NtRp567
(dp568
g19
I1
sg20
I0
sg21
I19
sg22
I0
sg23
I10
sg24
I0
sbssg25
S'x\xbd\x9e\x91KN&\xd8/\x02\xed\xbe\xdf7\xd2m'
p569
ssS'pyherc_config_dsl_levelgeneratorfactory'
p570
(dp571
g6
(dp572
g8
I0
sg9
S'pyherc_config_dsl_levelgeneratorfactory.html'
p573
sg11
S'pyherc.config.dsl.levelgeneratorfactory'
p574
sg13
g14
(g15
g16
NtRp575
(dp576
g19
I1
sg20
I0
sg21
I35
sg22
I0
sg23
I0
sg24
I0
sbssg25
S'\xd7\xd3r\x04\xa5\x7fM\x13\x01\xd5Ud\x89S\x08\n'
p577
ssS'pyherc_rules_magic'
p578
(dp579
g6
(dp580
g8
I0
sg9
S'pyherc_rules_magic.html'
p581
sg11
S'pyherc.rules.magic'
p582
sg13
g14
(g15
g16
NtRp583
(dp584
g19
I1
sg20
I0
sg21
I33
sg22
I0
sg23
I26
sg24
I0
sbssg25
S'D\x8dO\xb85\xc290\xd6a\xab\xc2\xcd[f\xc3'
p585
ssS'pyherc_config'
p586
(dp587
g6
(dp588
g8
I0
sg9
S'pyherc_config.html'
p589
sg11
S'pyherc.config'
p590
sg13
g14
(g15
g16
NtRp591
(dp592
g19
I1
sg20
I0
sg21
I2
sg22
I0
sg23
I0
sg24
I0
sbssg25
S'bz\x90\t]Q\x8fH\x10\x8er\x12n=X\x95'
p593
ssS'herculeum_config_levels_configure_upper_crypt'
p594
(dp595
g6
(dp596
g102
I0
sg103
S'herculeum_config_levels_configure_upper_crypt.html'
p597
sg105
S'herculeum.config.levels.configure_upper_crypt'
p598
sg107
g14
(g15
g16
NtRp599
(dp600
g19
I1
sg20
I0
sg21
I48
sg22
I0
sg23
I0
sg24
I0
sbssg25
S'\xea\x06\xc7\xab\xc85\x05\x0e\x12\x8f\xe2w\xfcj\t\xae'
p601
ssS'pyherc_events_poison'
p602
(dp603
g6
(dp604
g134
I0
sg135
S'pyherc_events_poison.html'
p605
sg137
S'pyherc.events.poison'
p606
sg139
g14
(g15
g16
NtRp607
(dp608
g19
I1
sg20
I0
sg21
I32
sg22
I0
sg23
I15
sg24
I0
sbssg25
S'\xf2>\xf5*\xff\x06\xc2L\xf2\xcf?\xbb\xa5\x10\xed\x19'
p609
ssS'pyherc_aspects'
p610
(dp611
g6
(dp612
g8
I0
sg9
S'pyherc_aspects.html'
p613
sg11
S'pyherc.aspects'
p614
sg13
g14
(g15
g16
NtRp615
(dp616
g19
I1
sg20
I0
sg21
I37
sg22
I0
sg23
I3
sg24
I0
sbssg25
S"\xc2\xae\xc25\xf6\x12\x9c\x17'\xba\x96\xfa~\x8f$\x12"
p617
ssS'pyherc_generators_dungeon'
p618
(dp619
g6
(dp620
g8
I0
sg9
S'pyherc_generators_dungeon.html'
p621
sg11
S'pyherc.generators.dungeon'
p622
sg13
g14
(g15
g16
NtRp623
(dp624
g19
I1
sg20
I0
sg21
I18
sg22
I0
sg23
I10
sg24
I0
sbssg25
S'%({=\xdb\xac\x0c\xbd\x93%\x03\x96\x8a\x01\xbf\x08'
p625
ssS'herculeum_gui_inventory'
p626
(dp627
g6
(dp628
g375
I0
sg376
S'herculeum_gui_inventory.html'
p629
sg378
S'herculeum.gui.inventory'
p630
sg380
g14
(g15
g16
NtRp631
(dp632
g19
I1
sg20
I0
sg21
I330
sg22
I0
sg23
I92
sg24
I0
sbssg25
S'\xde+}Tl\xbe\x1b\xab\xfa\xae<\xb1\x8e\x19T\x92'
p633
ssS'pyherc_events_move'
p634
(dp635
g6
(dp636
g8
I0
sg9
S'pyherc_events_move.html'
p637
sg11
S'pyherc.events.move'
p638
sg13
g14
(g15
g16
NtRp639
(dp640
g19
I1
sg20
I0
sg21
I11
sg22
I0
sg23
I4
sg24
I0
sbssg25
S'\x91\xb3_\x87\xd6\xef+\xd9\xdd\\V\xbdXq\xd3\xae'
p641
ssS'pyherc_rules_factory'
p642
(dp643
g6
(dp644
g8
I0
sg9
S'pyherc_rules_factory.html'
p645
sg11
S'pyherc.rules.factory'
p646
sg13
g14
(g15
g16
NtRp647
(dp648
g19
I1
sg20
I0
sg21
I18
sg22
I0
sg23
I1
sg24
I0
sbssg25
S'\xec\x0e\xfb8\x04]\xa2\x96\xd9\xa3\x05\x86S\xe9\xb0|'
p649
ssS'pyherc_events_hitpoints'
p650
(dp651
S'index'
p652
(dp653
g122
I0
sg123
S'pyherc_events_hitpoints.html'
p654
sg125
S'pyherc.events.hitpoints'
p655
sg127
g14
(g15
g16
NtRp656
(dp657
g19
I1
sg20
I0
sg21
I8
sg22
I0
sg23
I0
sg24
I0
sbssS'hash'
p658
S'&\xec\x8753B\x86\xd3\xa5\x7fg\xf2\x1a\xbeY\x88'
p659
ssS'pyherc_ai_pathfinding'
p660
(dp661
g51
(dp662
g53
I0
sg54
S'pyherc_ai_pathfinding.html'
p663
sg56
S'pyherc.ai.pathfinding'
p664
sg58
g14
(g15
g16
NtRp665
(dp666
g19
I1
sg20
I0
sg21
I71
sg22
I0
sg23
I7
sg24
I0
sbssg61
S'\x01~\xde`\x9a\x1b\t\xae\xe8\xa7\x1fE\x80\xe9\\7'
p667
ssS'pyherc_data_effects_damagemodifier'
p668
(dp669
S'index'
p670
(dp671
g134
I0
sg135
S'pyherc_data_effects_damagemodifier.html'
p672
sg137
S'pyherc.data.effects.damagemodifier'
p673
sg139
g14
(g15
g16
NtRp674
(dp675
g19
I1
sg20
I0
sg21
I13
sg22
I0
sg23
I0
sg24
I0
sbssS'hash'
p676
S'\xdb\x9b\xea\x9f\xa4\x81(;\x89\xb81\xed\xa0k8\x8d'
p677
ssS'pyherc_rules_utils'
p678
(dp679
g6
(dp680
g8
I0
sg9
S'pyherc_rules_utils.html'
p681
sg11
S'pyherc.rules.utils'
p682
sg13
g14
(g15
g16
NtRp683
(dp684
g19
I1
sg20
I0
sg21
I32
sg22
I0
sg23
I13
sg24
I0
sbssg25
S'\xcf\x98_\xc7#Yx!D\x84\x84\x92\xd0\x11\xf6\xc7'
p685
ssS'pyherc_rules_consume_action'
p686
(dp687
g6
(dp688
g102
I0
sg103
S'pyherc_rules_consume_action.html'
p689
sg105
S'pyherc.rules.consume.action'
p690
sg107
g14
(g15
g16
NtRp691
(dp692
g19
I1
sg20
I0
sg21
I22
sg22
I0
sg23
I0
sg24
I0
sbssg25
S'+\r\xee\xcaP\xbc\x8a\x88SIkI\xcc\x1e\x98L'
p693
ssS'herculeum_config_levels_configure_items'
p694
(dp695
g6
(dp696
g278
I0
sg279
S'herculeum_config_levels_configure_items.html'
p697
sg281
S'herculeum.config.levels.configure_items'
p698
sg283
g14
(g15
g16
NtRp699
(dp700
g19
I1
sg20
I0
sg21
I19
sg22
I0
sg23
I0
sg24
I0
sbssg25
S'\x9e\x7f\xe2\xa83]\x19z\xb1O\xc7\xeb.\x06\x06\xff'
p701
ssS'pyherc_events_combat'
p702
(dp703
g6
(dp704
g134
I0
sg135
S'pyherc_events_combat.html'
p705
sg137
S'pyherc.events.combat'
p706
sg139
g14
(g15
g16
NtRp707
(dp708
g19
I1
sg20
I0
sg21
I38
sg22
I0
sg23
I20
sg24
I0
sbssg25
S'\xb5\x8a\xb7h%\xf0\xc6\x07b\x8d\x9cT\x9e\xc2\xacj'
p709
ssS'pyherc_rules_attack_melee'
p710
(dp711
g6
(dp712
g278
I0
sg279
S'pyherc_rules_attack_melee.html'
p713
sg281
S'pyherc.rules.attack.melee'
p714
sg283
g14
(g15
g16
NtRp715
(dp716
g19
I1
sg20
I0
sg21
I14
sg22
I0
sg23
I0
sg24
I0
sbssg25
S'#\xf1rz[\xc6\xac\xf5\x86\x92\x18\xb5]Zy\xe4'
p717
ssS'pyherc_rules_inventory_factories'
p718
(dp719
g6
(dp720
g8
I0
sg9
S'pyherc_rules_inventory_factories.html'
p721
sg11
S'pyherc.rules.inventory.factories'
p722
sg13
g14
(g15
g16
NtRp723
(dp724
g19
I1
sg20
I0
sg21
I29
sg22
I0
sg23
I2
sg24
I0
sbssg25
S'\x11\x06\x8cE\x99z@\x99YYHLXV\x0bC'
p725
ssS'pyherc_events_event'
p726
(dp727
g6
(dp728
g553
I0
sg554
S'pyherc_events_event.html'
p729
sg556
S'pyherc.events.event'
p730
sg558
g14
(g15
g16
NtRp731
(dp732
g19
I1
sg20
I0
sg21
I22
sg22
I0
sg23
I2
sg24
I0
sbssg25
S'\xa6\xf1f\t\x10;\xe3;R`\xce\xb2\xcb\xe6;\x88'
p733
ssS'herculeum_config_tiles'
p734
(dp735
g6
(dp736
g74
I0
sg75
S'herculeum_config_tiles.html'
p737
sg77
S'herculeum.config.tiles'
p738
sg79
g14
(g15
g16
NtRp739
(dp740
g19
I1
sg20
I0
sg21
I103
sg22
I0
sg23
I0
sg24
I0
sbssg25
S'\xf8mwc\x06\xd4\x7fh\xf2\xea\x8e!\x99\xd1\xfe\xfd'
p741
ssS'pyherc_data_effects_poison'
p742
(dp743
g6
(dp744
g134
I0
sg135
S'pyherc_data_effects_poison.html'
p745
sg137
S'pyherc.data.effects.poison'
p746
sg139
g14
(g15
g16
NtRp747
(dp748
g19
I1
sg20
I0
sg21
I20
sg22
I0
sg23
I1
sg24
I0
sbssg25
S'G}\xcd\xe5\x0c\xcd\xa1\x00!M\xd3D\x10DA:'
p749
ssS'pyherc_debug_data'
p750
(dp751
g6
(dp752
g8
I0
sg9
S'pyherc_debug_data.html'
p753
sg11
S'pyherc.debug.data'
p754
sg13
g14
(g15
g16
NtRp755
(dp756
g19
I1
sg20
I0
sg21
I2
sg22
I0
sg23
I0
sg24
I0
sbssg25
S'\x0f\x1a\xa6\x11=\xd2\xe4\xd8\xc3\x0b\xea\xaa\xd6T\xac&'
p757
ssS'herculeum_config'
p758
(dp759
g6
(dp760
g8
I0
sg9
S'herculeum_config.html'
p761
sg11
S'herculeum.config'
p762
sg13
g14
(g15
g16
NtRp763
(dp764
g19
I1
sg20
I0
sg21
I2
sg22
I0
sg23
I0
sg24
I0
sbssg25
S'\xdf\xf4\x18nA\xbe\xc2\xfc\x12\x14v.\xbc\xa0\xa1\x92'
p765
ssS'pyherc_data_item'
p766
(dp767
g6
(dp768
g220
I0
sg221
S'pyherc_data_item.html'
p769
sg223
S'pyherc.data.item'
p770
sg225
g14
(g15
g16
NtRp771
(dp772
g19
I1
sg20
I0
sg21
I73
sg22
I0
sg23
I5
sg24
I0
sbssg25
S'\xb9l\x1b\xb4x\xb9\xdf\xcf\x0f\xa4\xfe\xe8\x16eBB'
p773
ssS'pyherc_generators_level_decorator_basic'
p774
(dp775
g6
(dp776
g220
I0
sg221
S'pyherc_generators_level_decorator_basic.html'
p777
sg223
S'pyherc.generators.level.decorator.basic'
p778
sg225
g14
(g15
g16
NtRp779
(dp780
g19
I1
sg20
I0
sg21
I75
sg22
I0
sg23
I1
sg24
I0
sbssg25
S'\xca\xb6\xc2iJ\xf5Cp\xce.\xb8\xda\x87\xc8\x91w'
p781
ssS'pyherc_rules_inventory'
p782
(dp783
g6
(dp784
g8
I0
sg9
S'pyherc_rules_inventory.html'
p785
sg11
S'pyherc.rules.inventory'
p786
sg13
g14
(g15
g16
NtRp787
(dp788
g19
I1
sg20
I0
sg21
I2
sg22
I0
sg23
I0
sg24
I0
sbssg25
S':\x9a\x82Ay\xed\xd5a\xd2\xad\xf5\\%1\xae\xb9'
p789
ssS'pyherc_config_config'
p790
(dp791
g6
(dp792
g134
I0
sg135
S'pyherc_config_config.html'
p793
sg137
S'pyherc.config.config'
p794
sg139
g14
(g15
g16
NtRp795
(dp796
g19
I1
sg20
I0
sg21
I101
sg22
I0
sg23
I0
sg24
I0
sbssg25
S'\xd2\x00\xd2z\xddC\x83E<\xb9\x92\xba,\xd0\xffI'
p797
ssS'pyherc_generators_level_room'
p798
(dp799
g6
(dp800
g8
I0
sg9
S'pyherc_generators_level_room.html'
p801
sg11
S'pyherc.generators.level.room'
p802
sg13
g14
(g15
g16
NtRp803
(dp804
g19
I1
sg20
I0
sg21
I3
sg22
I0
sg23
I0
sg24
I0
sbssg25
S'o\x0e+\x186Z\x16Z\x8e,/[\xce\xa3\\\x8a'
p805
ssS'pyherc_generators_level_generator'
p806
(dp807
g6
(dp808
g8
I0
sg9
S'pyherc_generators_level_generator.html'
p809
sg11
S'pyherc.generators.level.generator'
p810
sg13
g14
(g15
g16
NtRp811
(dp812
g19
I1
sg20
I0
sg21
I81
sg22
I0
sg23
I3
sg24
I0
sbssg25
S'B\xeas\xf9\xb7\xa3\xc4h\xb8\x1a\xc6\xb9\x1d\x1ex\xf2'
p813
ssS'pyherc_events_inventory'
p814
(dp815
g6
(dp816
g8
I0
sg9
S'pyherc_events_inventory.html'
p817
sg11
S'pyherc.events.inventory'
p818
sg13
g14
(g15
g16
NtRp819
(dp820
g19
I1
sg20
I0
sg21
I22
sg22
I0
sg23
I8
sg24
I0
sbssg25
S'\x8e\xf4\x1dX\xa11\xc0W\xc0N\xee\xb4\xe5t$*'
p821
ssS'herculeum_config_levels'
p822
(dp823
g6
(dp824
g8
I0
sg9
S'herculeum_config_levels.html'
p825
sg11
S'herculeum.config.levels'
p826
sg13
g14
(g15
g16
NtRp827
(dp828
g19
I1
sg20
I0
sg21
I5
sg22
I0
sg23
I0
sg24
I0
sbssg25
S'\x04_\xd8r\xf7\xd4\x9bj}4\xe1\x06T\xd8\xa6\xff'
p829
ssS'herculeum_application'
p830
(dp831
g6
(dp832
g134
I0
sg135
S'herculeum_application.html'
p833
sg137
S'herculeum.application'
p834
sg139
g14
(g15
g16
NtRp835
(dp836
g19
I1
sg20
I0
sg21
I78
sg22
I0
sg23
I33
sg24
I0
sbssg25
S'\x04Sj\xf2,\xad$<;\x9cS\x06\xe0\xfaU\x06'
p837
ssS'pyherc_generators_level_partitioners_section'
p838
(dp839
g6
(dp840
g8
I0
sg9
S'pyherc_generators_level_partitioners_section.html'
p841
sg11
S'pyherc.generators.level.partitioners.section'
p842
sg13
g14
(g15
g16
NtRp843
(dp844
g19
I1
sg20
I0
sg21
I127
sg22
I0
sg23
I4
sg24
I0
sbssg25
S'I\x8d\x123\x90\xd1\x9ctR\xf0\x0c\xad\x11\x8fG\x19'
p845
ssS'pyherc_generators_level_room_corridor'
p846
(dp847
g6
(dp848
g8
I0
sg9
S'pyherc_generators_level_room_corridor.html'
p849
sg11
S'pyherc.generators.level.room.corridor'
p850
sg13
g14
(g15
g16
NtRp851
(dp852
g19
I1
sg20
I0
sg21
I61
sg22
I0
sg23
I0
sg24
I0
sbssg25
S"\xae\xe0\xbdx\xb1\xd5'\xadp\x8ef\xbc\x079\xacQ"
p853
ssS'herculeum_gui_help'
p854
(dp855
S'index'
p856
(dp857
g388
I0
sg389
S'herculeum_gui_help.html'
p858
sg391
S'herculeum.gui.help'
p859
sg393
g14
(g15
g16
NtRp860
(dp861
g19
I1
sg20
I0
sg21
I43
sg22
I0
sg23
I28
sg24
I0
sbssS'hash'
p862
S'\x12\r\x8a\xd0O\xeb\xc6";\xd8aT\x9fF\xd6\x19'
p863
ssS'herculeum_config_levels_effects'
p864
(dp865
g6
(dp866
g134
I0
sg135
S'herculeum_config_levels_effects.html'
p867
sg137
S'herculeum.config.levels.effects'
p868
sg139
g14
(g15
g16
NtRp869
(dp870
g19
I1
sg20
I0
sg21
I9
sg22
I0
sg23
I0
sg24
I0
sbssg25
S'\x1b4EYf\x9e\xa1\x95\xda\xe1\xad\xd0_$\xae\xea'
p871
ssS'pyherc_ai_skeleton'
p872
(dp873
g373
(dp874
g53
I0
sg54
S'pyherc_ai_skeleton.html'
p875
sg56
S'pyherc.ai.skeleton'
p876
sg58
g14
(g15
g16
NtRp877
(dp878
g19
I1
sg20
I0
sg21
I73
sg22
I0
sg23
I61
sg24
I0
sbssg383
S'\xfd\x99\xf9IP\xdf\x17t\xfd\xdb\xa5K\xa4\xd0\xcc\x8b'
p879
ssS'pyherc_generators_level_partitioners_grid'
p880
(dp881
g6
(dp882
g8
I0
sg9
S'pyherc_generators_level_partitioners_grid.html'
p883
sg11
S'pyherc.generators.level.partitioners.grid'
p884
sg13
g14
(g15
g16
NtRp885
(dp886
g19
I1
sg20
I0
sg21
I69
sg22
I0
sg23
I0
sg24
I0
sbssg25
S'\xda~\x043,W%\x04=\xefaSE\x86:\x07'
p887
ssS'pyherc_events_healing'
p888
(dp889
S'index'
p890
(dp891
g134
I0
sg135
S'pyherc_events_healing.html'
p892
sg137
S'pyherc.events.healing'
p893
sg139
g14
(g15
g16
NtRp894
(dp895
g19
I1
sg20
I0
sg21
I33
sg22
I0
sg23
I15
sg24
I0
sbssS'hash'
p896
S'\x08\xef\xa1\xfe\x1f\xef\xbdX\x15\xd7\x07\xf6\xbb-g\xa1'
p897
ssS'pyherc_ai'
p898
(dp899
g6
(dp900
g187
I0
sg188
S'pyherc_ai.html'
p901
sg190
S'pyherc.ai'
p902
sg192
g14
(g15
g16
NtRp903
(dp904
g19
I1
sg20
I0
sg21
I4
sg22
I0
sg23
I0
sg24
I0
sbssg25
S'\xbb\xe1\xb1\xc0\xdb#_\xdf\xab7\xb6\xaf\xdb6"H'
p905
ssS'pyherc_generators_level_portals'
p906
(dp907
g6
(dp908
g8
I0
sg9
S'pyherc_generators_level_portals.html'
p909
sg11
S'pyherc.generators.level.portals'
p910
sg13
g14
(g15
g16
NtRp911
(dp912
g19
I1
sg20
I0
sg21
I60
sg22
I0
sg23
I1
sg24
I0
sbssg25
S'\x87({vr\x83\xaa\xb75IhcE\xdd~l'
p913
ssS'pyherc_rules_attack_unarmed'
p914
(dp915
g6
(dp916
g278
I0
sg279
S'pyherc_rules_attack_unarmed.html'
p917
sg281
S'pyherc.rules.attack.unarmed'
p918
sg283
g14
(g15
g16
NtRp919
(dp920
g19
I1
sg20
I0
sg21
I13
sg22
I0
sg23
I0
sg24
I0
sbssg25
S'Ou\xb4\xe7\xe6\xc1\xb7\xb7\x0e\x83r\x81(^\x90y'
p921
ssS'pyherc_generators_level_prototiles'
p922
(dp923
g6
(dp924
g8
I0
sg9
S'pyherc_generators_level_prototiles.html'
p925
sg11
S'pyherc.generators.level.prototiles'
p926
sg13
g14
(g15
g16
NtRp927
(dp928
g19
I1
sg20
I0
sg21
I7
sg22
I0
sg23
I0
sg24
I0
sbssg25
S'\xe6\xb0\x07\x11\x00\xf9\xc1\xe34=\xe9U\xe3\xeb\xafi'
p929
ssS'pyherc_rules_attack'
p930
(dp931
g6
(dp932
g8
I0
sg9
S'pyherc_rules_attack.html'
p933
sg11
S'pyherc.rules.attack'
p934
sg13
g14
(g15
g16
NtRp935
(dp936
g19
I1
sg20
I0
sg21
I2
sg22
I0
sg23
I0
sg24
I0
sbssg25
S'q{\xef_\x9d\xc7O\xf0\xca-!\x08\xab\x89\xdcR'
p937
ssS'pyherc_generators_creature'
p938
(dp939
g6
(dp940
S'par'
p941
I0
sS'html_filename'
p942
S'pyherc_generators_creature.html'
p943
sS'name'
p944
S'pyherc.generators.creature'
p945
sS'nums'
p946
g14
(g15
g16
NtRp947
(dp948
g19
I1
sg20
I0
sg21
I71
sg22
I0
sg23
I0
sg24
I0
sbssg25
S"\xdb\x13L\xb15Y\xa7Te+\xd7\xfb\xa6b'T"
p949
ssS'pyherc_ai_pyheapq'
p950
(dp951
g51
(dp952
g53
I0
sg54
S'pyherc_ai_pyheapq.html'
p953
sg56
S'pyherc.ai.pyheapq'
p954
sg58
g14
(g15
g16
NtRp955
(dp956
g19
I1
sg20
I0
sg21
I102
sg22
I0
sg23
I49
sg24
I0
sbssg61
S'\x8e\xe2\xb3\x1c\xcf\xd1\x0e\x9d\x03T\x87S\x9b\xbd%\x18'
p957
ssS'pyherc_events_death'
p958
(dp959
g6
(dp960
g102
I0
sg103
S'pyherc_events_death.html'
p961
sg105
S'pyherc.events.death'
p962
sg107
g14
(g15
g16
NtRp963
(dp964
g19
I1
sg20
I0
sg21
I11
sg22
I0
sg23
I6
sg24
I0
sbssg25
S'z{a\x8d\xaf\xe0\x85\x05\x82\xc2\x9b\xd4)\x1f\xf5\x8d'
p965
ssS'pyherc_data_character'
p966
(dp967
g6
(dp968
S'par'
p969
I0
sS'html_filename'
p970
S'pyherc_data_character.html'
p971
sS'name'
p972
S'pyherc.data.character'
p973
sS'nums'
p974
g14
(g15
g16
NtRp975
(dp976
g19
I1
sg20
I0
sg21
I167
sg22
I0
sg23
I8
sg24
I0
sbssg25
S':\x98?\x1e\\\xcd\xac\xd2\xc6/kW\xb9\xe1\x9e\xa0'
p977
ssS'herculeum'
p978
(dp979
g6
(dp980
g8
I0
sg9
S'herculeum.html'
p981
sg11
g978
sg13
g14
(g15
g16
NtRp982
(dp983
g19
I1
sg20
I0
sg21
I2
sg22
I0
sg23
I0
sg24
I0
sbssg25
S'\x12\x00,o\x0b\xe0\xd1\x14\xea\xbd\xd6\xc4~g\xac\\'
p984
ssS'herculeum_config_config'
p985
(dp986
g6
(dp987
g102
I0
sg103
S'herculeum_config_config.html'
p988
sg105
S'herculeum.config.config'
p989
sg107
g14
(g15
g16
NtRp990
(dp991
g19
I1
sg20
I0
sg21
I17
sg22
I0
sg23
I0
sg24
I0
sbssg25
S'>\xd7Y>X\x9cnB\xfa\x8e\xd9\x01>\xbe\x0c\xb8'
p992
sssS'version'
p993
S'3.5.2'
p994
sS'settings'
p995
S'\xc1\xee\xb7\xbf\xe7\xac2\x82d\xa3\xde\xb9\x03Z\xc0\xdf'
p996
sS'format'
p997
I1
s.