(dp1
S'files'
p2
(dp3
S'pyherc_rules_consume'
p4
(dp5
S'index'
p6
(dp7
S'par'
p8
I0
sS'html_filename'
p9
S'pyherc_rules_consume.html'
p10
sS'name'
p11
S'pyherc.rules.consume'
p12
sS'nums'
p13
ccopy_reg
_reconstructor
p14
(ccoverage.results
Numbers
p15
c__builtin__
object
p16
NtRp17
(dp18
S'n_files'
p19
I1
sS'n_branches'
p20
I0
sS'n_statements'
p21
I3
sS'n_excluded'
p22
I0
sS'n_missing'
p23
I0
sS'n_missing_branches'
p24
I0
sbssS'hash'
p25
S'Q\xebm\x91:\xc2\x97o1\xaa\xba\x07V\th\xa6'
p26
ssS'pyherc_rules_attack_unarmed'
p27
(dp28
g6
(dp29
g8
I0
sg9
S'pyherc_rules_attack_unarmed.html'
p30
sg11
S'pyherc.rules.attack.unarmed'
p31
sg13
g14
(g15
g16
NtRp32
(dp33
g19
I1
sg20
I0
sg21
I18
sg22
I0
sg23
I0
sg24
I0
sbssg25
S'\xe3\x02\xf4\x07\xdc\xd8\x95\xd2\xb1\xe6\xa2\xc8\xcc\x1f\xaf+'
p34
ssS'pyherc_rules_ending'
p35
(dp36
g6
(dp37
S'par'
p38
I0
sS'html_filename'
p39
S'pyherc_rules_ending.html'
p40
sS'name'
p41
S'pyherc.rules.ending'
p42
sS'nums'
p43
g14
(g15
g16
NtRp44
(dp45
S'n_files'
p46
I1
sS'n_branches'
p47
I0
sS'n_statements'
p48
I31
sS'n_excluded'
p49
I0
sS'n_missing'
p50
I15
sS'n_missing_branches'
p51
I0
sbssg25
S'\xac\xb5XD\xe1$\xb0\xcfC\x9d<\xad\xd2~\xa6\xb4'
p52
ssS'pyherc_data_dungeon'
p53
(dp54
g6
(dp55
g38
I0
sg39
S'pyherc_data_dungeon.html'
p56
sg41
S'pyherc.data.dungeon'
p57
sg43
g14
(g15
g16
NtRp58
(dp59
g46
I1
sg47
I0
sg48
I18
sg49
I0
sg50
I5
sg51
I0
sbssg25
S'\xff\xc9[Y\x8a,\xb7\xd34\xe6\xa6D\xd7\\\xbb\x93'
p60
ssS'pyherc_generators_item'
p61
(dp62
g6
(dp63
S'par'
p64
I0
sS'html_filename'
p65
S'pyherc_generators_item.html'
p66
sS'name'
p67
S'pyherc.generators.item'
p68
sS'nums'
p69
g14
(g15
g16
NtRp70
(dp71
S'n_files'
p72
I1
sS'n_branches'
p73
I0
sS'n_statements'
p74
I60
sS'n_excluded'
p75
I0
sS'n_missing'
p76
I6
sS'n_missing_branches'
p77
I0
sbssg25
S'\x05\xe1-\x1eu\x7f\xd7\xd0\x9a\xb3\xc2=\x08c\xb0\x9f'
p78
ssS'pyherc_rules_moving'
p79
(dp80
g6
(dp81
g64
I0
sg65
S'pyherc_rules_moving.html'
p82
sg67
S'pyherc.rules.moving'
p83
sg69
g14
(g15
g16
NtRp84
(dp85
g72
I1
sg73
I0
sg74
I10
sg75
I0
sg76
I0
sg77
I0
sbssg25
S'\x9c\x85\t|\xc7p\xdbz\xaf\x1ej\xc1qy\x0e\x13'
p86
ssS'pyherc_gui_surfaceManager'
p87
(dp88
g6
(dp89
g8
I0
sg9
S'pyherc_gui_surfaceManager.html'
p90
sg11
S'pyherc.gui.surfaceManager'
p91
sg13
g14
(g15
g16
NtRp92
(dp93
g19
I1
sg20
I0
sg21
I154
sg22
I0
sg23
I5
sg24
I0
sbssg25
S'\x1e\xe2\xb2\xe1!\xc80\xd6\x9e\xd5}\xc7\x11\xc3\xc9\x01'
p94
ssS'pyherc_main'
p95
(dp96
g6
(dp97
g8
I0
sg9
S'pyherc_main.html'
p98
sg11
S'pyherc.main'
p99
sg13
g14
(g15
g16
NtRp100
(dp101
g19
I1
sg20
I0
sg21
I34
sg22
I0
sg23
I10
sg24
I0
sbssg25
S'\x13\xea\xd2\xe3a\xe5\\s\xac&\x08\xe7\xe4\xa9o\xc7'
p102
ssS'pyherc_generators_level_decorator'
p103
(dp104
g6
(dp105
g8
I0
sg9
S'pyherc_generators_level_decorator.html'
p106
sg11
S'pyherc.generators.level.decorator'
p107
sg13
g14
(g15
g16
NtRp108
(dp109
g19
I1
sg20
I0
sg21
I4
sg22
I0
sg23
I0
sg24
I0
sbssg25
S'\xf4\xd4_-o\x87\xd8p-\x82\xddb\x1b\x97\xf3v'
p110
ssS'pyherc_generators_level_items'
p111
(dp112
g6
(dp113
g8
I0
sg9
S'pyherc_generators_level_items.html'
p114
sg11
S'pyherc.generators.level.items'
p115
sg13
g14
(g15
g16
NtRp116
(dp117
g19
I1
sg20
I0
sg21
I52
sg22
I0
sg23
I0
sg24
I0
sbssg25
S'\x89\x95\x94\x807,(\xfb 5w\xd8\xf2\xbb\xf2Z'
p118
ssS'pyherc_generators_level'
p119
(dp120
g6
(dp121
g8
I0
sg9
S'pyherc_generators_level.html'
p122
sg11
S'pyherc.generators.level'
p123
sg13
g14
(g15
g16
NtRp124
(dp125
g19
I1
sg20
I0
sg21
I2
sg22
I0
sg23
I0
sg24
I0
sbssg25
S'\xcf\x87\n\xea\xa5\xec\xb6\n\x87\xc4\xe3\xe2\x11\xa2\x14"'
p126
ssS'pyherc_gui_images'
p127
(dp128
g6
(dp129
g8
I0
sg9
S'pyherc_gui_images.html'
p130
sg11
S'pyherc.gui.images'
p131
sg13
g14
(g15
g16
NtRp132
(dp133
g19
I1
sg20
I0
sg21
I7
sg22
I0
sg23
I0
sg24
I0
sbssg25
S'E2\x10\xb7\xca\xd4\x9a\xfa7\x10J\x0cq\x9f\x1f\xb5'
p134
ssS'pyherc_generators_level_room'
p135
(dp136
g6
(dp137
g64
I0
sg65
S'pyherc_generators_level_room.html'
p138
sg67
S'pyherc.generators.level.room'
p139
sg69
g14
(g15
g16
NtRp140
(dp141
g72
I1
sg73
I0
sg74
I3
sg75
I0
sg76
I0
sg77
I0
sbssg25
S'gl\xb0\xd6B\xc3\x8e\xa7/\x98j\xbf\xff\x0c\xcb\n'
p142
ssS'pyherc_data_level'
p143
(dp144
S'index'
p145
(dp146
g38
I0
sg39
S'pyherc_data_level.html'
p147
sg41
S'pyherc.data.level'
p148
sg43
g14
(g15
g16
NtRp149
(dp150
g46
I1
sg47
I0
sg48
I164
sg49
I0
sg50
I23
sg51
I0
sbssS'hash'
p151
S"M\xb1\xb0'\t\xfc\x10\x8e\x84\xd9,g\xea\x94C\t"
p152
ssS'pyherc_config'
p153
(dp154
g6
(dp155
g38
I0
sg39
S'pyherc_config.html'
p156
sg41
S'pyherc.config'
p157
sg43
g14
(g15
g16
NtRp158
(dp159
g46
I1
sg47
I0
sg48
I148
sg49
I0
sg50
I0
sg51
I0
sbssg25
S"\xfdM*\xd0\xf7I\x85\x84\xf1\x15'\xa7\xe6\xc7\xf5\x0c"
p160
ssS'pyherc_application'
p161
(dp162
g6
(dp163
g64
I0
sg65
S'pyherc_application.html'
p164
sg67
S'pyherc.application'
p165
sg69
g14
(g15
g16
NtRp166
(dp167
g72
I1
sg73
I0
sg74
I77
sg75
I0
sg76
I36
sg77
I0
sbssg25
S"e\x912\x8e\xdcd\x90'\x88\xd3S\xcb\xdb.\xd2\xe1"
p168
ssS'pyherc_gui_startmenu'
p169
(dp170
g6
(dp171
g8
I0
sg9
S'pyherc_gui_startmenu.html'
p172
sg11
S'pyherc.gui.startmenu'
p173
sg13
g14
(g15
g16
NtRp174
(dp175
g19
I1
sg20
I0
sg21
I48
sg22
I0
sg23
I36
sg24
I0
sbssg25
S'\xc0TTm\x85\xd4S\\\x1d\xc0\x0f\x1bF(\x9b\xcf'
p176
ssS'pyherc_rules_time'
p177
(dp178
g6
(dp179
g8
I0
sg9
S'pyherc_rules_time.html'
p180
sg11
S'pyherc.rules.time'
p181
sg13
g14
(g15
g16
NtRp182
(dp183
g19
I1
sg20
I0
sg21
I19
sg22
I0
sg23
I0
sg24
I0
sbssg25
S'w\x16\xef.\x88w\x0e\x86Xqs!\xc35m\x98'
p184
ssS'pyherc_generators_level_decorator_basic'
p185
(dp186
g6
(dp187
g8
I0
sg9
S'pyherc_generators_level_decorator_basic.html'
p188
sg11
S'pyherc.generators.level.decorator.basic'
p189
sg13
g14
(g15
g16
NtRp190
(dp191
g19
I1
sg20
I0
sg21
I77
sg22
I0
sg23
I1
sg24
I0
sbssg25
S'8\x019\xech\xd7\x89\x9a\xeb\xdc\xc4\x81\xc0(+8'
p192
ssS'pyherc_rules_character'
p193
(dp194
g6
(dp195
g8
I0
sg9
S'pyherc_rules_character.html'
p196
sg11
S'pyherc.rules.character'
p197
sg13
g14
(g15
g16
NtRp198
(dp199
g19
I1
sg20
I0
sg21
I42
sg22
I0
sg23
I34
sg24
I0
sbssg25
S"\xc8\xa7\xfas\xf7'\x15c'0\x1c\xc6\x06\xda\x7fO"
p200
ssS'pyherc_rules_move'
p201
(dp202
g6
(dp203
g64
I0
sg65
S'pyherc_rules_move.html'
p204
sg67
S'pyherc.rules.move'
p205
sg69
g14
(g15
g16
NtRp206
(dp207
g72
I1
sg73
I0
sg74
I2
sg75
I0
sg76
I0
sg77
I0
sbssg25
S'\x0c\xfcV\xc3\xb4v\xa9d_\xf12>\x9e\xfe\x9e;'
p208
ssS'pyherc_generators'
p209
(dp210
g6
(dp211
g64
I0
sg65
S'pyherc_generators.html'
p212
sg67
S'pyherc.generators'
p213
sg69
g14
(g15
g16
NtRp214
(dp215
g72
I1
sg73
I0
sg74
I4
sg75
I0
sg76
I0
sg77
I0
sbssg25
S'\xd0\x9c\xa3\x12\xa9\xf4&Z\x18\x93\xb9\xfa\xd0\x94\xaf\x15'
p216
ssS'pyherc_data_item'
p217
(dp218
g6
(dp219
g38
I0
sg39
S'pyherc_data_item.html'
p220
sg41
S'pyherc.data.item'
p221
sg43
g14
(g15
g16
NtRp222
(dp223
g46
I1
sg47
I0
sg48
I86
sg49
I0
sg50
I7
sg51
I0
sbssg25
S"w\xe5\xe7\xb2,\x16\x0b\xb8Z\x10'*\xa4s\x85\x97"
p224
ssS'pyherc_rules_attack_factories'
p225
(dp226
g6
(dp227
g64
I0
sg65
S'pyherc_rules_attack_factories.html'
p228
sg67
S'pyherc.rules.attack.factories'
p229
sg69
g14
(g15
g16
NtRp230
(dp231
g72
I1
sg73
I0
sg74
I96
sg75
I0
sg76
I28
sg77
I0
sbssg25
S'\xfdm\xe5\xdd\xc0\x15\xdc\x89\xa4\xa4\xce\x8b-\xaa\xb3\x82'
p232
ssS'pyherc_aspects'
p233
(dp234
g6
(dp235
g8
I0
sg9
S'pyherc_aspects.html'
p236
sg11
S'pyherc.aspects'
p237
sg13
g14
(g15
g16
NtRp238
(dp239
g19
I1
sg20
I0
sg21
I37
sg22
I0
sg23
I3
sg24
I0
sbssg25
S'\x8aZ\x93f@\xa5\xec\xce=\xb0h$\x14I_\xdb'
p240
ssS'pyherc_data_model'
p241
(dp242
g6
(dp243
g38
I0
sg39
S'pyherc_data_model.html'
p244
sg41
S'pyherc.data.model'
p245
sg43
g14
(g15
g16
NtRp246
(dp247
g46
I1
sg47
I0
sg48
I190
sg49
I0
sg50
I27
sg51
I0
sbssg25
S'\x80\x8c\xa7RP2LRvI-\xad\xccJ\x80\xc5'
p248
ssS'pyherc_generators_dungeon'
p249
(dp250
g6
(dp251
g64
I0
sg65
S'pyherc_generators_dungeon.html'
p252
sg67
S'pyherc.generators.dungeon'
p253
sg69
g14
(g15
g16
NtRp254
(dp255
g72
I1
sg73
I0
sg74
I27
sg75
I0
sg76
I13
sg77
I0
sbssg25
S'\xdd\x1e8\x8b\t\xfbU\x8c\xba\xc6\xcd\x91\xfa&\xfb<'
p256
ssS'pyherc_rules_effects_effect'
p257
(dp258
g145
(dp259
g64
I0
sg65
S'pyherc_rules_effects_effect.html'
p260
sg67
S'pyherc.rules.effects.effect'
p261
sg69
g14
(g15
g16
NtRp262
(dp263
g72
I1
sg73
I0
sg74
I25
sg75
I0
sg76
I1
sg77
I0
sbssg151
S'M\xc0\x02D{\xe3\x0c\x93\xcd\xc2\x0c\x99wlqC'
p264
ssS'pyherc_generators_level_room_squareroom'
p265
(dp266
g6
(dp267
g64
I0
sg65
S'pyherc_generators_level_room_squareroom.html'
p268
sg67
S'pyherc.generators.level.room.squareroom'
p269
sg69
g14
(g15
g16
NtRp270
(dp271
g72
I1
sg73
I0
sg74
I36
sg75
I0
sg76
I0
sg77
I0
sbssg25
S'\xa90\x93\xda\x8f\xe7\xcaI\xb1\xa7\xa5\xa7\xbb\xa1o\x1a'
p272
ssS'pyherc_gui_dialogs'
p273
(dp274
g6
(dp275
g64
I0
sg65
S'pyherc_gui_dialogs.html'
p276
sg67
S'pyherc.gui.dialogs'
p277
sg69
g14
(g15
g16
NtRp278
(dp279
g72
I1
sg73
I0
sg74
I161
sg75
I0
sg76
I117
sg77
I0
sbssg25
S"j'\x9d$h\xda\xad\xa2\xccl\x05\x8e%\xbc\x8a\xf3"
p280
ssS'pyherc_rules_factory'
p281
(dp282
g6
(dp283
g64
I0
sg65
S'pyherc_rules_factory.html'
p284
sg67
S'pyherc.rules.factory'
p285
sg69
g14
(g15
g16
NtRp286
(dp287
g72
I1
sg73
I0
sg74
I18
sg75
I0
sg76
I1
sg77
I0
sbssg25
S'\xb0F\x0b\x8d\x83B\xc8\xaa\xd4\x91\x1c!\x17\x9c\xc6\x18'
p288
ssS'pyherc_generators_level_prototiles'
p289
(dp290
g6
(dp291
g8
I0
sg9
S'pyherc_generators_level_prototiles.html'
p292
sg11
S'pyherc.generators.level.prototiles'
p293
sg13
g14
(g15
g16
NtRp294
(dp295
g19
I1
sg20
I0
sg21
I7
sg22
I0
sg23
I0
sg24
I0
sbssg25
S'\x0b!\nAm\xc4\x0ej\x0b \xda[V*\x17\xc7'
p296
ssS'pyherc_rules_attack_melee'
p297
(dp298
g6
(dp299
g8
I0
sg9
S'pyherc_rules_attack_melee.html'
p300
sg11
S'pyherc.rules.attack.melee'
p301
sg13
g14
(g15
g16
NtRp302
(dp303
g19
I1
sg20
I0
sg21
I17
sg22
I0
sg23
I0
sg24
I0
sbssg25
S"\x82\xdaK\xb3\x8d\xa6\xe4J\xda\xa1z']\xe7j\xe4"
p304
ssS'pyherc_generators_level_partitioners'
p305
(dp306
g6
(dp307
g64
I0
sg65
S'pyherc_generators_level_partitioners.html'
p308
sg67
S'pyherc.generators.level.partitioners'
p309
sg69
g14
(g15
g16
NtRp310
(dp311
g72
I1
sg73
I0
sg74
I2
sg75
I0
sg76
I0
sg77
I0
sbssg25
S'q\x92\xfde\xac\xbf\x182\xa9\x89 M\xccR{?'
p312
ssS'pyherc_rules_move_factories'
p313
(dp314
g6
(dp315
g64
I0
sg65
S'pyherc_rules_move_factories.html'
p316
sg67
S'pyherc.rules.move.factories'
p317
sg69
g14
(g15
g16
NtRp318
(dp319
g72
I1
sg73
I0
sg74
I70
sg75
I0
sg76
I20
sg77
I0
sbssg25
S'/OZ\xf3\r\xae\xe4\x95p\xf7\x93\xf0\xe2\x89g\xe1'
p320
ssS'pyherc_gui_windows'
p321
(dp322
g6
(dp323
g64
I0
sg65
S'pyherc_gui_windows.html'
p324
sg67
S'pyherc.gui.windows'
p325
sg69
g14
(g15
g16
NtRp326
(dp327
g72
I1
sg73
I0
sg74
I254
sg75
I0
sg76
I198
sg77
I0
sbssg25
S'\xea=\xc1\xe4\xf4\xec\x82P{\xf4\xfe\x03my\xe9\xf3'
p328
ssS'pyherc_data_tiles'
p329
(dp330
g6
(dp331
g64
I0
sg65
S'pyherc_data_tiles.html'
p332
sg67
S'pyherc.data.tiles'
p333
sg69
g14
(g15
g16
NtRp334
(dp335
g72
I1
sg73
I0
sg74
I101
sg75
I0
sg76
I0
sg77
I0
sbssg25
S'\x81v\x8b\xa7:\x02\xa2DhtjFF\x9f\xb8\xc6'
p336
ssS'pyherc_ai_simple'
p337
(dp338
g6
(dp339
g64
I0
sg65
S'pyherc_ai_simple.html'
p340
sg67
S'pyherc.ai.simple'
p341
sg69
g14
(g15
g16
NtRp342
(dp343
g72
I1
sg73
I0
sg74
I61
sg75
I0
sg76
I52
sg77
I0
sbssg25
S'\xc6K-\x0f\xc0x\x04i/F\x1c?\x9b\xa2p\xfb'
p344
ssS'pyherc_generators_level_room_corridor'
p345
(dp346
g6
(dp347
g8
I0
sg9
S'pyherc_generators_level_room_corridor.html'
p348
sg11
S'pyherc.generators.level.room.corridor'
p349
sg13
g14
(g15
g16
NtRp350
(dp351
g19
I1
sg20
I0
sg21
I61
sg22
I0
sg23
I0
sg24
I0
sbssg25
S'\x11\x1b\x8c\x9e\x87\xc0\x84\xfa\xbd\t\xf8\x9c\xd5\xd2p\xe9'
p352
ssS'pyherc_rules_effects'
p353
(dp354
g6
(dp355
g64
I0
sg65
S'pyherc_rules_effects.html'
p356
sg67
S'pyherc.rules.effects'
p357
sg69
g14
(g15
g16
NtRp358
(dp359
g72
I1
sg73
I0
sg74
I6
sg75
I0
sg76
I0
sg77
I0
sbssg25
S'\x1a\xe1\x87\x8e:vF~\xc5jZ\xbbn\xd7Ak'
p360
ssS'pyherc_generators_level_generator'
p361
(dp362
g6
(dp363
g64
I0
sg65
S'pyherc_generators_level_generator.html'
p364
sg67
S'pyherc.generators.level.generator'
p365
sg69
g14
(g15
g16
NtRp366
(dp367
g72
I1
sg73
I0
sg74
I82
sg75
I0
sg76
I8
sg77
I0
sbssg25
S'\r\xd9\x95\xc2a\xf8{\xa1\x8d\x8f\xf6\x05\xe9/\x84\xd0'
p368
ssS'pyherc_generators_level_partitioners_grid'
p369
(dp370
g6
(dp371
g8
I0
sg9
S'pyherc_generators_level_partitioners_grid.html'
p372
sg11
S'pyherc.generators.level.partitioners.grid'
p373
sg13
g14
(g15
g16
NtRp374
(dp375
g19
I1
sg20
I0
sg21
I69
sg22
I0
sg23
I0
sg24
I0
sbssg25
S'\xecgWS\xc0\xd9x\xc4\xbb6\xb7}\xc8j\x1a\xe4'
p376
ssS'pyherc_rules_utils'
p377
(dp378
g6
(dp379
g64
I0
sg65
S'pyherc_rules_utils.html'
p380
sg67
S'pyherc.rules.utils'
p381
sg69
g14
(g15
g16
NtRp382
(dp383
g72
I1
sg73
I0
sg74
I32
sg75
I0
sg76
I13
sg77
I0
sbssg25
S'H)\x01\x8d\xaa%\x89\xfa\x1b\xf5c\xe8\x17\x84T\xa0'
p384
ssS'pyherc_rules_items'
p385
(dp386
g6
(dp387
g64
I0
sg65
S'pyherc_rules_items.html'
p388
sg67
S'pyherc.rules.items'
p389
sg69
g14
(g15
g16
NtRp390
(dp391
g72
I1
sg73
I0
sg74
I89
sg75
I0
sg76
I0
sg77
I0
sbssg25
S'\xec\xfbrKa8~n\xdc\x96\xc1\xf5\xce\xd2"_'
p392
ssS'pyherc_generators_utils'
p393
(dp394
g6
(dp395
g38
I0
sg39
S'pyherc_generators_utils.html'
p396
sg41
S'pyherc.generators.utils'
p397
sg43
g14
(g15
g16
NtRp398
(dp399
g46
I1
sg47
I0
sg48
I63
sg49
I0
sg50
I9
sg51
I0
sbssg25
S'\xe5\xd3\x97\x1f\x81\xe2\x10"|\xf8\xb3kH\xae\x114'
p400
ssS'pyherc_rules_consume_action'
p401
(dp402
g6
(dp403
S'par'
p404
I0
sS'html_filename'
p405
S'pyherc_rules_consume_action.html'
p406
sS'name'
p407
S'pyherc.rules.consume.action'
p408
sS'nums'
p409
g14
(g15
g16
NtRp410
(dp411
S'n_files'
p412
I1
sS'n_branches'
p413
I0
sS'n_statements'
p414
I25
sS'n_excluded'
p415
I0
sS'n_missing'
p416
I0
sS'n_missing_branches'
p417
I0
sbssg25
S'\xff\xb7\x92\xb8=:\n}\x00\xa5\xd10fhj\x84'
p418
ssS'pyherc_rules_los'
p419
(dp420
g6
(dp421
g8
I0
sg9
S'pyherc_rules_los.html'
p422
sg11
S'pyherc.rules.los'
p423
sg13
g14
(g15
g16
NtRp424
(dp425
g19
I1
sg20
I0
sg21
I56
sg22
I0
sg23
I47
sg24
I0
sbssg25
S'\x8d\x139\xb5\x881\xe7\x14F\x80\xc5\xab\xed\xc3\xbe\xcc'
p426
ssS'pyherc_ai'
p427
(dp428
g6
(dp429
g64
I0
sg65
S'pyherc_ai.html'
p430
sg67
S'pyherc.ai'
p431
sg69
g14
(g15
g16
NtRp432
(dp433
g72
I1
sg73
I0
sg74
I2
sg75
I0
sg76
I0
sg77
I0
sbssg25
S'\xce(\xa5\xefH\xbbFOxb\rI\xea>\xa3U'
p434
ssS'pyherc'
p435
(dp436
g6
(dp437
g64
I0
sg65
S'pyherc.html'
p438
sg67
S'pyherc'
p439
sg69
g14
(g15
g16
NtRp440
(dp441
g72
I1
sg73
I0
sg74
I2
sg75
I0
sg76
I0
sg77
I0
sbssg25
S'd\x82\xd9\xcd\n\xf7\xa6\xc4\xb0]*\xbf\xd0[\x14N'
p442
ssS'pyherc_generators_level_config'
p443
(dp444
g6
(dp445
g8
I0
sg9
S'pyherc_generators_level_config.html'
p446
sg11
S'pyherc.generators.level.config'
p447
sg13
g14
(g15
g16
NtRp448
(dp449
g19
I1
sg20
I0
sg21
I28
sg22
I0
sg23
I0
sg24
I0
sbssg25
S'\x87=\xf6\xeb\xb7Qn\x9a\xed\xda\xae\xe8E9\x8b\x9a'
p450
ssS'pyherc_rules_effects_damage'
p451
(dp452
g145
(dp453
g64
I0
sg65
S'pyherc_rules_effects_damage.html'
p454
sg67
S'pyherc.rules.effects.damage'
p455
sg69
g14
(g15
g16
NtRp456
(dp457
g72
I1
sg73
I0
sg74
I11
sg75
I0
sg76
I0
sg77
I0
sbssg151
S'\x01\x83\xa1\x8bI\x1fLq\xa2\t\x7f@!\x87\xa2:'
p458
ssS'pyherc_rules_magic'
p459
(dp460
g6
(dp461
g64
I0
sg65
S'pyherc_rules_magic.html'
p462
sg67
S'pyherc.rules.magic'
p463
sg69
g14
(g15
g16
NtRp464
(dp465
g72
I1
sg73
I0
sg74
I33
sg75
I0
sg76
I26
sg77
I0
sbssg25
S'\xf4\xbd\xc0h0~|\xf89\xd5\xe6\xcb\xde\xf5\xc3\x84'
p466
ssS'pyherc_rules_public'
p467
(dp468
g6
(dp469
g64
I0
sg65
S'pyherc_rules_public.html'
p470
sg67
S'pyherc.rules.public'
p471
sg69
g14
(g15
g16
NtRp472
(dp473
g72
I1
sg73
I0
sg74
I56
sg75
I0
sg76
I4
sg77
I0
sbssg25
S"9\xad\xe73(\x0f\xdf\x9c\xce7'\x9e[\xb7 ."
p474
ssS'pyherc_generators_level_partitioners_section'
p475
(dp476
g6
(dp477
g64
I0
sg65
S'pyherc_generators_level_partitioners_section.html'
p478
sg67
S'pyherc.generators.level.partitioners.section'
p479
sg69
g14
(g15
g16
NtRp480
(dp481
g72
I1
sg73
I0
sg74
I127
sg75
I0
sg76
I4
sg77
I0
sbssg25
S'\x13\x17\xfa\xb68\x90\xea\x14\x0b\x13\x0f\xf0\xec\xee\xf9\xfc'
p482
ssS'pyherc_generators_level_portals'
p483
(dp484
g6
(dp485
g64
I0
sg65
S'pyherc_generators_level_portals.html'
p486
sg67
S'pyherc.generators.level.portals'
p487
sg69
g14
(g15
g16
NtRp488
(dp489
g72
I1
sg73
I0
sg74
I65
sg75
I0
sg76
I1
sg77
I0
sbssg25
S'KT|\xf9l\xc3\xba\xe5\x137\x9a\xb6\xeeP\xb8\x15'
p490
ssS'pyherc_gui_options'
p491
(dp492
g6
(dp493
g8
I0
sg9
S'pyherc_gui_options.html'
p494
sg11
S'pyherc.gui.options'
p495
sg13
g14
(g15
g16
NtRp496
(dp497
g19
I1
sg20
I0
sg21
I23
sg22
I0
sg23
I13
sg24
I0
sbssg25
S'1\xc8\xb9\x99\xf2|Im\x91\xc2(\x97\xbb\xd54\xac'
p498
ssS'pyherc_rules_tables'
p499
(dp500
g6
(dp501
g64
I0
sg65
S'pyherc_rules_tables.html'
p502
sg67
S'pyherc.rules.tables'
p503
sg69
g14
(g15
g16
NtRp504
(dp505
g72
I1
sg73
I0
sg74
I192
sg75
I0
sg76
I13
sg77
I0
sbssg25
S'\xa6K\x98\x14\xf35\xc3\xe86\xcfLF\xd1cD\x9b'
p506
ssS'pyherc_rules_effects_poison'
p507
(dp508
g145
(dp509
g38
I0
sg39
S'pyherc_rules_effects_poison.html'
p510
sg41
S'pyherc.rules.effects.poison'
p511
sg43
g14
(g15
g16
NtRp512
(dp513
g46
I1
sg47
I0
sg48
I13
sg49
I0
sg50
I0
sg51
I0
sbssg151
S'+\x00\xb2\xf8\xac\xbcY\xa6\x06\xdc\xf2\x1c}~\x0c\xa1'
p514
ssS'pyherc_generators_level_creatures'
p515
(dp516
g6
(dp517
g8
I0
sg9
S'pyherc_generators_level_creatures.html'
p518
sg11
S'pyherc.generators.level.creatures'
p519
sg13
g14
(g15
g16
NtRp520
(dp521
g19
I1
sg20
I0
sg21
I49
sg22
I0
sg23
I1
sg24
I0
sbssg25
S'G7C|\xe4\x0b\xb8\x04g\xd1Q?w\xf8p\xc2'
p522
ssS'pyherc_gui'
p523
(dp524
g6
(dp525
g8
I0
sg9
S'pyherc_gui.html'
p526
sg11
S'pyherc.gui'
p527
sg13
g14
(g15
g16
NtRp528
(dp529
g19
I1
sg20
I0
sg21
I2
sg22
I0
sg23
I0
sg24
I0
sbssg25
S'\xb6\xfcR\x03\xa8mC\xbb\xf0\x1aU\xd0\x06]?\xfb'
p530
ssS'pyherc_rules'
p531
(dp532
g6
(dp533
g8
I0
sg9
S'pyherc_rules.html'
p534
sg11
S'pyherc.rules'
p535
sg13
g14
(g15
g16
NtRp536
(dp537
g19
I1
sg20
I0
sg21
I6
sg22
I0
sg23
I0
sg24
I0
sbssg25
S'\x878kV<nt6[\x0b}eD69i'
p538
ssS'pyherc_rules_consume_factories'
p539
(dp540
g6
(dp541
g64
I0
sg65
S'pyherc_rules_consume_factories.html'
p542
sg67
S'pyherc.rules.consume.factories'
p543
sg69
g14
(g15
g16
NtRp544
(dp545
g72
I1
sg73
I0
sg74
I9
sg75
I0
sg76
I0
sg77
I0
sbssg25
S'lu\xbf\xed\xf6\x11\xbf.\x10\x8e]\x01H\xb0{\x83'
p546
ssS'pyherc_debug_handlers'
p547
(dp548
g6
(dp549
g8
I0
sg9
S'pyherc_debug_handlers.html'
p550
sg11
S'pyherc.debug.handlers'
p551
sg13
g14
(g15
g16
NtRp552
(dp553
g19
I1
sg20
I0
sg21
I34
sg22
I0
sg23
I15
sg24
I0
sbssg25
S'\xe7\r\xf6\x8a\xc7\xde\xc6\xd7\n\x0f\xca\x12xC\xe7\xe9'
p554
ssS'pyherc_rules_attack'
p555
(dp556
g6
(dp557
g64
I0
sg65
S'pyherc_rules_attack.html'
p558
sg67
S'pyherc.rules.attack'
p559
sg69
g14
(g15
g16
NtRp560
(dp561
g72
I1
sg73
I0
sg74
I2
sg75
I0
sg76
I0
sg77
I0
sbssg25
S'\xdf\xa1\x17X\xb7\xee\x18H\xdf\x06\x1d\x86<O\x1e7'
p562
ssS'pyherc_generators_creature'
p563
(dp564
g6
(dp565
g64
I0
sg65
S'pyherc_generators_creature.html'
p566
sg67
S'pyherc.generators.creature'
p567
sg69
g14
(g15
g16
NtRp568
(dp569
g72
I1
sg73
I0
sg74
I34
sg75
I0
sg76
I0
sg77
I0
sbssg25
S'\x1b\x1fV?\x0c\xf6\x19$\xf7\xf2\xf3tw\xe2\x10\x06'
p570
ssS'pyherc_rules_effects_factory'
p571
(dp572
g145
(dp573
g404
I0
sg405
S'pyherc_rules_effects_factory.html'
p574
sg407
S'pyherc.rules.effects.factory'
p575
sg409
g14
(g15
g16
NtRp576
(dp577
g412
I1
sg413
I0
sg414
I21
sg415
I0
sg416
I2
sg417
I0
sbssg151
S'\n}\xca\xd6\x95\x10\x1b\xb7\x8d\xdd\xea\x9fT\xd0\xd10'
p578
ssS'pyherc_rules_effects_heal'
p579
(dp580
g145
(dp581
g64
I0
sg65
S'pyherc_rules_effects_heal.html'
p582
sg67
S'pyherc.rules.effects.heal'
p583
sg69
g14
(g15
g16
NtRp584
(dp585
g72
I1
sg73
I0
sg74
I13
sg75
I0
sg76
I0
sg77
I0
sbssg151
S'G\xfc?2\xeb\xda\xa4\x8bXD\x0f\x8c\xe4h\x9e*'
p586
ssS'pyherc_data_portal'
p587
(dp588
g145
(dp589
g38
I0
sg39
S'pyherc_data_portal.html'
p590
sg41
S'pyherc.data.portal'
p591
sg43
g14
(g15
g16
NtRp592
(dp593
g46
I1
sg47
I0
sg48
I40
sg49
I0
sg50
I7
sg51
I0
sbssg151
S'\xe29q}\xde\x9c\x945Xm\x998\xa6x\x08\x03'
p594
ssS'pyherc_data'
p595
(dp596
g6
(dp597
g64
I0
sg65
S'pyherc_data.html'
p598
sg67
S'pyherc.data'
p599
sg69
g14
(g15
g16
NtRp600
(dp601
g72
I1
sg73
I0
sg74
I7
sg75
I0
sg76
I0
sg77
I0
sbssg25
S'\xfd\xca\xa7\x02\x11Rd\xdasA\xb08\xf1\xa2(\r'
p602
ssS'pyherc_rules_attack_action'
p603
(dp604
g6
(dp605
g64
I0
sg65
S'pyherc_rules_attack_action.html'
p606
sg67
S'pyherc.rules.attack.action'
p607
sg69
g14
(g15
g16
NtRp608
(dp609
g72
I1
sg73
I0
sg74
I51
sg75
I0
sg76
I6
sg77
I0
sbssg25
S'>\xeb.\x1e\xea\xfaZ\xdd\x808U\xd5m\xad \xfc'
p610
ssS'pyherc_debug_data'
p611
(dp612
g6
(dp613
g8
I0
sg9
S'pyherc_debug_data.html'
p614
sg11
S'pyherc.debug.data'
p615
sg13
g14
(g15
g16
NtRp616
(dp617
g19
I1
sg20
I0
sg21
I2
sg22
I0
sg23
I0
sg24
I0
sbssg25
S'\r)\xf8{\x9c\x02\xab\x19\x16>\x1a_q\xf4s\xd9'
p618
ssS'pyherc_generators_level_room_catacombs'
p619
(dp620
g6
(dp621
g8
I0
sg9
S'pyherc_generators_level_room_catacombs.html'
p622
sg11
S'pyherc.generators.level.room.catacombs'
p623
sg13
g14
(g15
g16
NtRp624
(dp625
g19
I1
sg20
I0
sg21
I57
sg22
I0
sg23
I6
sg24
I0
sbssg25
S'\xe6\x17\xf0\xc6\xbcg\x9e\xe3H]\xa7\t\xe4\xcd~\xf4'
p626
ssS'pyherc_rules_move_action'
p627
(dp628
g6
(dp629
g64
I0
sg65
S'pyherc_rules_move_action.html'
p630
sg67
S'pyherc.rules.move.action'
p631
sg69
g14
(g15
g16
NtRp632
(dp633
g72
I1
sg73
I0
sg74
I35
sg75
I0
sg76
I2
sg77
I0
sbssg25
S'Pk\x90\xf9\xcb\xf59\x95\xaa\x92\xc3\xfb\x80\x8b\x1f\x9c'
p634
ssS'pyherc_debug'
p635
(dp636
g6
(dp637
g8
I0
sg9
S'pyherc_debug.html'
p638
sg11
S'pyherc.debug'
p639
sg13
g14
(g15
g16
NtRp640
(dp641
g19
I1
sg20
I0
sg21
I2
sg22
I0
sg23
I0
sg24
I0
sbssg25
S'\t;\x8b\x18%)0\xbePB\x8e3\xc9\x82\xbc+'
p642
sssS'version'
p643
S'3.5.1'
p644
sS'settings'
p645
S'\xb2\xdfF\x1bG\x97\x1a\x99\xe3\xa1R\xf36\xc2q\xc3'
p646
sS'format'
p647
I1
s.